target datalayout = "e-m:e-p270:32:32-p271:32:32-p272:64:64-i64:64-i128:128-f80:128-n8:16:32:64-S128"
target triple = "x86_64-pc-linux-gnu"

%struct.Abc_ZddMan_ = type { i32, i32, i32, i32, i32, i32, ptr, ptr, ptr, ptr, i32, i32, i64, ptr, ptr, ptr }
%struct.Abc_ZddObj_ = type { i32, i32, i32 }
%struct.Abc_ZddEnt_ = type { i32, i32, i32, i32 }

; Function Attrs: inlinehint nounwind uwtable
define internal i32 @Abc_ZddHash(i32 noundef %0, i32 noundef %1, i32 noundef %2) #2 {
  %4 = alloca i32, align 4
  %5 = alloca i32, align 4
  %6 = alloca i32, align 4
  store i32 %0, ptr %4, align 4, !tbaa !10
  store i32 %1, ptr %5, align 4, !tbaa !10
  store i32 %2, ptr %6, align 4, !tbaa !10
  %7 = load i32, ptr %4, align 4, !tbaa !10
  %8 = mul nsw i32 12582917, %7
  %9 = load i32, ptr %5, align 4, !tbaa !10
  %10 = mul nsw i32 4256249, %9
  %11 = add nsw i32 %8, %10
  %12 = load i32, ptr %6, align 4, !tbaa !10
  %13 = mul nsw i32 741457, %12
  %14 = add nsw i32 %11, %13
  ret i32 %14
}

; Function Attrs: inlinehint nounwind uwtable
define internal i32 @Abc_ZddCacheInsert(ptr noundef %0, i32 noundef %1, i32 noundef %2, i32 noundef %3, i32 noundef %4) #2 {
  %6 = alloca ptr, align 8
  %7 = alloca i32, align 4
  %8 = alloca i32, align 4
  %9 = alloca i32, align 4
  %10 = alloca i32, align 4
  %11 = alloca ptr, align 8
  store ptr %0, ptr %6, align 8, !tbaa !3
  store i32 %1, ptr %7, align 4, !tbaa !10
  store i32 %2, ptr %8, align 4, !tbaa !10
  store i32 %3, ptr %9, align 4, !tbaa !10
  store i32 %4, ptr %10, align 4, !tbaa !10
  call void @llvm.lifetime.start.p0(i64 8, ptr %11) #12
  %12 = load ptr, ptr %6, align 8, !tbaa !3
  %13 = getelementptr inbounds nuw %struct.Abc_ZddMan_, ptr %12, i32 0, i32 8
  %14 = load ptr, ptr %13, align 8, !tbaa !34
  %15 = load i32, ptr %7, align 4, !tbaa !10
  %16 = load i32, ptr %8, align 4, !tbaa !10
  %17 = load i32, ptr %9, align 4, !tbaa !10
  %18 = call i32 @Abc_ZddHash(i32 noundef %15, i32 noundef %16, i32 noundef %17)
  %19 = load ptr, ptr %6, align 8, !tbaa !3
  %20 = getelementptr inbounds nuw %struct.Abc_ZddMan_, ptr %19, i32 0, i32 5
  %21 = load i32, ptr %20, align 4, !tbaa !33
  %22 = and i32 %18, %21
  %23 = zext i32 %22 to i64
  %24 = getelementptr inbounds nuw %struct.Abc_ZddEnt_, ptr %14, i64 %23
  store ptr %24, ptr %11, align 8, !tbaa !47
  %25 = load i32, ptr %7, align 4, !tbaa !10
  %26 = load ptr, ptr %11, align 8, !tbaa !47
  %27 = getelementptr inbounds nuw %struct.Abc_ZddEnt_, ptr %26, i32 0, i32 0
  store i32 %25, ptr %27, align 4, !tbaa !48
  %28 = load i32, ptr %8, align 4, !tbaa !10
  %29 = load ptr, ptr %11, align 8, !tbaa !47
  %30 = getelementptr inbounds nuw %struct.Abc_ZddEnt_, ptr %29, i32 0, i32 1
  store i32 %28, ptr %30, align 4, !tbaa !50
  %31 = load i32, ptr %9, align 4, !tbaa !10
  %32 = load ptr, ptr %11, align 8, !tbaa !47
  %33 = getelementptr inbounds nuw %struct.Abc_ZddEnt_, ptr %32, i32 0, i32 2
  store i32 %31, ptr %33, align 4, !tbaa !51
  %34 = load i32, ptr %10, align 4, !tbaa !10
  %35 = load ptr, ptr %11, align 8, !tbaa !47
  %36 = getelementptr inbounds nuw %struct.Abc_ZddEnt_, ptr %35, i32 0, i32 3
  store i32 %34, ptr %36, align 4, !tbaa !52
  %37 = load ptr, ptr %6, align 8, !tbaa !3
  %38 = getelementptr inbounds nuw %struct.Abc_ZddMan_, ptr %37, i32 0, i32 11
  %39 = load i32, ptr %38, align 4, !tbaa !45
  %40 = add nsw i32 %39, 1
  store i32 %40, ptr %38, align 4, !tbaa !45
  %41 = load i32, ptr %10, align 4, !tbaa !10
  call void @llvm.lifetime.end.p0(i64 8, ptr %11) #12
  ret i32 %41
}

; Function Attrs: inlinehint nounwind uwtable
define internal ptr @Abc_ZddNode(ptr noundef %0, i32 noundef %1) #2 {
  %3 = alloca ptr, align 8
  %4 = alloca i32, align 4
  store ptr %0, ptr %3, align 8, !tbaa !3
  store i32 %1, ptr %4, align 4, !tbaa !10
  %5 = load ptr, ptr %3, align 8, !tbaa !3
  %6 = getelementptr inbounds nuw %struct.Abc_ZddMan_, ptr %5, i32 0, i32 9
  %7 = load ptr, ptr %6, align 8, !tbaa !22
  %8 = load i32, ptr %4, align 4, !tbaa !10
  %9 = sext i32 %8 to i64
  %10 = getelementptr inbounds %struct.Abc_ZddObj_, ptr %7, i64 %9
  ret ptr %10
}

; Function Attrs: inlinehint nounwind uwtable
define internal i32 @Abc_ZddCacheLookup(ptr noundef %0, i32 noundef %1, i32 noundef %2, i32 noundef %3) #2 {
  %5 = alloca ptr, align 8
  %6 = alloca i32, align 4
  %7 = alloca i32, align 4
  %8 = alloca i32, align 4
  %9 = alloca ptr, align 8
  store ptr %0, ptr %5, align 8, !tbaa !3
  store i32 %1, ptr %6, align 4, !tbaa !10
  store i32 %2, ptr %7, align 4, !tbaa !10
  store i32 %3, ptr %8, align 4, !tbaa !10
  call void @llvm.lifetime.start.p0(i64 8, ptr %9) #12
  %10 = load ptr, ptr %5, align 8, !tbaa !3
  %11 = getelementptr inbounds nuw %struct.Abc_ZddMan_, ptr %10, i32 0, i32 8
  %12 = load ptr, ptr %11, align 8, !tbaa !34
  %13 = load i32, ptr %6, align 4, !tbaa !10
  %14 = load i32, ptr %7, align 4, !tbaa !10
  %15 = load i32, ptr %8, align 4, !tbaa !10
  %16 = call i32 @Abc_ZddHash(i32 noundef %13, i32 noundef %14, i32 noundef %15)
  %17 = load ptr, ptr %5, align 8, !tbaa !3
  %18 = getelementptr inbounds nuw %struct.Abc_ZddMan_, ptr %17, i32 0, i32 5
  %19 = load i32, ptr %18, align 4, !tbaa !33
  %20 = and i32 %16, %19
  %21 = zext i32 %20 to i64
  %22 = getelementptr inbounds nuw %struct.Abc_ZddEnt_, ptr %12, i64 %21
  store ptr %22, ptr %9, align 8, !tbaa !47
  %23 = load ptr, ptr %5, align 8, !tbaa !3
  %24 = getelementptr inbounds nuw %struct.Abc_ZddMan_, ptr %23, i32 0, i32 10
  %25 = load i32, ptr %24, align 8, !tbaa !44
  %26 = add nsw i32 %25, 1
  store i32 %26, ptr %24, align 8, !tbaa !44
  %27 = load ptr, ptr %9, align 8, !tbaa !47
  %28 = getelementptr inbounds nuw %struct.Abc_ZddEnt_, ptr %27, i32 0, i32 0
  %29 = load i32, ptr %28, align 4, !tbaa !48
  %30 = load i32, ptr %6, align 4, !tbaa !10
  %31 = icmp eq i32 %29, %30
  br i1 %31, label %32, label %48

32:                                               ; preds = %4
  %33 = load ptr, ptr %9, align 8, !tbaa !47
  %34 = getelementptr inbounds nuw %struct.Abc_ZddEnt_, ptr %33, i32 0, i32 1
  %35 = load i32, ptr %34, align 4, !tbaa !50
  %36 = load i32, ptr %7, align 4, !tbaa !10
  %37 = icmp eq i32 %35, %36
  br i1 %37, label %38, label %48

38:                                               ; preds = %32
  %39 = load ptr, ptr %9, align 8, !tbaa !47
  %40 = getelementptr inbounds nuw %struct.Abc_ZddEnt_, ptr %39, i32 0, i32 2
  %41 = load i32, ptr %40, align 4, !tbaa !51
  %42 = load i32, ptr %8, align 4, !tbaa !10
  %43 = icmp eq i32 %41, %42
  br i1 %43, label %44, label %48

44:                                               ; preds = %38
  %45 = load ptr, ptr %9, align 8, !tbaa !47
  %46 = getelementptr inbounds nuw %struct.Abc_ZddEnt_, ptr %45, i32 0, i32 3
  %47 = load i32, ptr %46, align 4, !tbaa !52
  br label %49

48:                                               ; preds = %38, %32, %4
  br label %49

49:                                               ; preds = %48, %44
  %50 = phi i32 [ %47, %44 ], [ -1, %48 ]
  call void @llvm.lifetime.end.p0(i64 8, ptr %9) #12
  ret i32 %50
}

; Function Attrs: nounwind uwtable
define i32 @Abc_ZddPermProduct(ptr noundef %0, i32 noundef %1, i32 noundef %2) #0 {
  %4 = alloca i32, align 4
  %5 = alloca ptr, align 8
  %6 = alloca i32, align 4
  %7 = alloca i32, align 4
  %8 = alloca ptr, align 8
  %9 = alloca i32, align 4
  %10 = alloca i32, align 4
  %11 = alloca i32, align 4
  %12 = alloca i32, align 4
  store ptr %0, ptr %5, align 8, !tbaa !3
  store i32 %1, ptr %6, align 4, !tbaa !10
  store i32 %2, ptr %7, align 4, !tbaa !10
  call void @llvm.lifetime.start.p0(i64 8, ptr %8) #12
  call void @llvm.lifetime.start.p0(i64 4, ptr %9) #12
  call void @llvm.lifetime.start.p0(i64 4, ptr %10) #12
  call void @llvm.lifetime.start.p0(i64 4, ptr %11) #12
  %13 = load i32, ptr %6, align 4, !tbaa !10
  %14 = icmp eq i32 %13, 0
  br i1 %14, label %15, label %16

15:                                               ; preds = %3
  store i32 0, ptr %4, align 4
  store i32 1, ptr %12, align 4
  br label %69

16:                                               ; preds = %3
  %17 = load i32, ptr %6, align 4, !tbaa !10
  %18 = icmp eq i32 %17, 1
  br i1 %18, label %19, label %21

19:                                               ; preds = %16
  %20 = load i32, ptr %7, align 4, !tbaa !10
  store i32 %20, ptr %4, align 4
  store i32 1, ptr %12, align 4
  br label %69

21:                                               ; preds = %16
  %22 = load i32, ptr %7, align 4, !tbaa !10
  %23 = icmp eq i32 %22, 0
  br i1 %23, label %24, label %25

24:                                               ; preds = %21
  store i32 0, ptr %4, align 4
  store i32 1, ptr %12, align 4
  br label %69

25:                                               ; preds = %21
  %26 = load i32, ptr %7, align 4, !tbaa !10
  %27 = icmp eq i32 %26, 1
  br i1 %27, label %28, label %30

28:                                               ; preds = %25
  %29 = load i32, ptr %6, align 4, !tbaa !10
  store i32 %29, ptr %4, align 4
  store i32 1, ptr %12, align 4
  br label %69

30:                                               ; preds = %25
  %31 = load ptr, ptr %5, align 8, !tbaa !3
  %32 = load i32, ptr %6, align 4, !tbaa !10
  %33 = load i32, ptr %7, align 4, !tbaa !10
  %34 = call i32 @Abc_ZddCacheLookup(ptr noundef %31, i32 noundef %32, i32 noundef %33, i32 noundef 6)
  store i32 %34, ptr %11, align 4, !tbaa !10
  %35 = icmp sge i32 %34, 0
  br i1 %35, label %36, label %38

36:                                               ; preds = %30
  %37 = load i32, ptr %11, align 4, !tbaa !10
  store i32 %37, ptr %4, align 4
  store i32 1, ptr %12, align 4
  br label %69

38:                                               ; preds = %30
  %39 = load ptr, ptr %5, align 8, !tbaa !3
  %40 = load i32, ptr %7, align 4, !tbaa !10
  %41 = call ptr @Abc_ZddNode(ptr noundef %39, i32 noundef %40)
  store ptr %41, ptr %8, align 8, !tbaa !46
  %42 = load ptr, ptr %5, align 8, !tbaa !3
  %43 = load i32, ptr %6, align 4, !tbaa !10
  %44 = load ptr, ptr %8, align 8, !tbaa !46
  %45 = getelementptr inbounds nuw %struct.Abc_ZddObj_, ptr %44, i32 0, i32 2
  %46 = load i32, ptr %45, align 4, !tbaa !25
  %47 = call i32 @Abc_ZddPermProduct(ptr noundef %42, i32 noundef %43, i32 noundef %46)
  store i32 %47, ptr %9, align 4, !tbaa !10
  %48 = load ptr, ptr %5, align 8, !tbaa !3
  %49 = load i32, ptr %6, align 4, !tbaa !10
  %50 = load ptr, ptr %8, align 8, !tbaa !46
  %51 = getelementptr inbounds nuw %struct.Abc_ZddObj_, ptr %50, i32 0, i32 1
  %52 = load i32, ptr %51, align 4, !tbaa !23
  %53 = call i32 @Abc_ZddPermProduct(ptr noundef %48, i32 noundef %49, i32 noundef %52)
  store i32 %53, ptr %10, align 4, !tbaa !10
  %54 = load ptr, ptr %5, align 8, !tbaa !3
  %55 = load i32, ptr %10, align 4, !tbaa !10
  %56 = load ptr, ptr %8, align 8, !tbaa !46
  %57 = load i32, ptr %56, align 4
  %58 = and i32 %57, 2147483647
  %59 = call i32 @Abc_ZddPerm(ptr noundef %54, i32 noundef %55, i32 noundef %58)
  store i32 %59, ptr %10, align 4, !tbaa !10
  %60 = load ptr, ptr %5, align 8, !tbaa !3
  %61 = load i32, ptr %9, align 4, !tbaa !10
  %62 = load i32, ptr %10, align 4, !tbaa !10
  %63 = call i32 @Abc_ZddUnion(ptr noundef %60, i32 noundef %61, i32 noundef %62)
  store i32 %63, ptr %11, align 4, !tbaa !10
  %64 = load ptr, ptr %5, align 8, !tbaa !3
  %65 = load i32, ptr %6, align 4, !tbaa !10
  %66 = load i32, ptr %7, align 4, !tbaa !10
  %67 = load i32, ptr %11, align 4, !tbaa !10
  %68 = call i32 @Abc_ZddCacheInsert(ptr noundef %64, i32 noundef %65, i32 noundef %66, i32 noundef 6, i32 noundef %67)
  store i32 %68, ptr %4, align 4
  store i32 1, ptr %12, align 4
  br label %69

69:                                               ; preds = %38, %36, %28, %24, %19, %15
  call void @llvm.lifetime.end.p0(i64 4, ptr %11) #12
  call void @llvm.lifetime.end.p0(i64 4, ptr %10) #12
  call void @llvm.lifetime.end.p0(i64 4, ptr %9) #12
  call void @llvm.lifetime.end.p0(i64 8, ptr %8) #12
  %70 = load i32, ptr %4, align 4
  ret i32 %70
}