; Function Attrs: nofree nounwind uwtable
define i32 @Abc_ZddPermProduct(ptr noundef %0, i32 noundef %1, i32 noundef %2) local_unnamed_addr #0 {
  switch i32 %1, label %5 [
    i32 0, label %common.ret31
    i32 1, label %4
  ]

4:                                                ; preds = %3
  br label %common.ret31

5:                                                ; preds = %3
  switch i32 %2, label %7 [
    i32 0, label %common.ret31
    i32 1, label %6
  ]

6:                                                ; preds = %5
  br label %common.ret31

7:                                                ; preds = %5
  %8 = getelementptr inbounds nuw i8, ptr %0, i64 40
  %9 = load ptr, ptr %8, align 8, !tbaa !31
  %10 = mul nsw i32 %1, 12582917
  %11 = mul nsw i32 %2, 4256249
  %12 = add i32 %10, 4448742
  %13 = add i32 %12, %11
  %14 = getelementptr inbounds nuw i8, ptr %0, i64 20
  %15 = load i32, ptr %14, align 4, !tbaa !30
  %16 = and i32 %15, %13
  %17 = zext i32 %16 to i64
  %18 = getelementptr inbounds nuw %struct.Abc_ZddEnt_, ptr %9, i64 %17
  %19 = getelementptr inbounds nuw i8, ptr %0, i64 56
  %20 = load i32, ptr %19, align 8, !tbaa !40
  %21 = add nsw i32 %20, 1
  store i32 %21, ptr %19, align 8, !tbaa !40
  %22 = load i32, ptr %18, align 4, !tbaa !42
  %23 = icmp eq i32 %22, %1
  br i1 %23, label %24, label %Abc_ZddCacheLookup.exit.thread

24:                                               ; preds = %7
  %25 = getelementptr inbounds nuw i8, ptr %18, i64 4
  %26 = load i32, ptr %25, align 4, !tbaa !44
  %27 = icmp eq i32 %26, %2
  br i1 %27, label %28, label %Abc_ZddCacheLookup.exit.thread

28:                                               ; preds = %24
  %29 = getelementptr inbounds nuw i8, ptr %18, i64 8
  %30 = load i32, ptr %29, align 4, !tbaa !45
  %31 = icmp eq i32 %30, 6
  br i1 %31, label %Abc_ZddCacheLookup.exit, label %Abc_ZddCacheLookup.exit.thread

Abc_ZddCacheLookup.exit:                          ; preds = %28
  %32 = getelementptr inbounds nuw i8, ptr %18, i64 12
  %33 = load i32, ptr %32, align 4, !tbaa !46
  %34 = icmp sgt i32 %33, -1
  br i1 %34, label %common.ret31, label %Abc_ZddCacheLookup.exit.thread

common.ret31:                                     ; preds = %Abc_ZddCacheLookup.exit, %5, %3, %6, %4, %Abc_ZddCacheLookup.exit.thread
  %common.ret31.op = phi i32 [ %47, %Abc_ZddCacheLookup.exit.thread ], [ %2, %4 ], [ %1, %6 ], [ %1, %3 ], [ %2, %5 ], [ %33, %Abc_ZddCacheLookup.exit ]
  ret i32 %common.ret31.op

Abc_ZddCacheLookup.exit.thread:                   ; preds = %7, %24, %28, %Abc_ZddCacheLookup.exit
  %35 = getelementptr i8, ptr %0, i64 48
  %.val = load ptr, ptr %35, align 8, !tbaa !18
  %36 = sext i32 %2 to i64
  %37 = getelementptr inbounds %struct.Abc_ZddObj_, ptr %.val, i64 %36
  %38 = getelementptr inbounds nuw i8, ptr %37, i64 8
  %39 = load i32, ptr %38, align 4, !tbaa !21
  %40 = tail call i32 @Abc_ZddPermProduct(ptr noundef nonnull %0, i32 noundef %1, i32 noundef %39)
  %41 = getelementptr inbounds nuw i8, ptr %37, i64 4
  %42 = load i32, ptr %41, align 4, !tbaa !19
  %43 = tail call i32 @Abc_ZddPermProduct(ptr noundef nonnull %0, i32 noundef %1, i32 noundef %42)
  %44 = load i32, ptr %37, align 4
  %45 = and i32 %44, 2147483647
  %46 = tail call i32 @Abc_ZddPerm(ptr noundef nonnull %0, i32 noundef %43, i32 noundef %45)
  %47 = tail call i32 @Abc_ZddUnion(ptr noundef nonnull %0, i32 noundef %40, i32 noundef %46)
  %48 = load ptr, ptr %8, align 8, !tbaa !31
  %49 = load i32, ptr %14, align 4, !tbaa !30
  %50 = and i32 %49, %13
  %51 = zext i32 %50 to i64
  %52 = getelementptr inbounds nuw %struct.Abc_ZddEnt_, ptr %48, i64 %51
  store i32 %1, ptr %52, align 4, !tbaa !42
  %53 = getelementptr inbounds nuw i8, ptr %52, i64 4
  store i32 %2, ptr %53, align 4, !tbaa !44
  %54 = getelementptr inbounds nuw i8, ptr %52, i64 8
  store i32 6, ptr %54, align 4, !tbaa !45
  %55 = getelementptr inbounds nuw i8, ptr %52, i64 12
  store i32 %47, ptr %55, align 4, !tbaa !46
  %56 = getelementptr inbounds nuw i8, ptr %0, i64 60
  %57 = load i32, ptr %56, align 4, !tbaa !41
  %58 = add nsw i32 %57, 1
  store i32 %58, ptr %56, align 4, !tbaa !41
  br label %common.ret31
}